target datalayout = "e-m:e-p270:32:32-p271:32:32-p272:64:64-i64:64-i128:128-f80:128-n8:16:32:64-S128"
target triple = "x86_64-pc-linux-gnu"

%struct.linenoiseState = type { i32, i32, ptr, i64, ptr, ptr, i64, i64, i64, i64, i64, i64, i32 }

; Function Attrs: nounwind uwtable
define dso_local void @linenoiseEditMoveEnd(ptr noundef %0) #0 {
  %2 = alloca ptr, align 8
  store ptr %0, ptr %2, align 8, !tbaa !23
  %3 = load ptr, ptr %2, align 8, !tbaa !23
  %4 = getelementptr inbounds nuw %struct.linenoiseState, ptr %3, i32 0, i32 7
  %5 = load i64, ptr %4, align 8, !tbaa !34
  %6 = load ptr, ptr %2, align 8, !tbaa !23
  %7 = getelementptr inbounds nuw %struct.linenoiseState, ptr %6, i32 0, i32 9
  %8 = load i64, ptr %7, align 8, !tbaa !25
  %9 = icmp ne i64 %5, %8
  br i1 %9, label %10, label %17

10:                                               ; preds = %1
  %11 = load ptr, ptr %2, align 8, !tbaa !23
  %12 = getelementptr inbounds nuw %struct.linenoiseState, ptr %11, i32 0, i32 9
  %13 = load i64, ptr %12, align 8, !tbaa !25
  %14 = load ptr, ptr %2, align 8, !tbaa !23
  %15 = getelementptr inbounds nuw %struct.linenoiseState, ptr %14, i32 0, i32 7
  store i64 %13, ptr %15, align 8, !tbaa !34
  %16 = load ptr, ptr %2, align 8, !tbaa !23
  call void @refreshLine(ptr noundef %16)
  br label %17

17:                                               ; preds = %10, %1
  ret void
}